target datalayout = "e-m:e-p270:32:32-p271:32:32-p272:64:64-i64:64-i128:128-f80:128-n8:16:32:64-S128"
target triple = "x86_64-pc-linux-gnu"

%struct.SDL_Rect = type { i32, i32, i32, i32 }
%struct.SDL_VideoData = type { ptr, ptr, i32, ptr, i64, i32, ptr, i32, i64, i64, %struct.X11_ClipboardData, %struct.X11_ClipboardData, ptr, i64, %struct.X11_SettingsData, i8, %struct.anon.1, [256 x i32], i8, i8, i8, i64, i8, %struct.SDL_Point, i32, ptr, i32, i8, i32, %struct.anon.2, i8, i64, ptr, ptr, i8, i8, i8 }
%struct.X11_ClipboardData = type { ptr, ptr, ptr, i64, i32 }
%struct.X11_SettingsData = type { ptr }
%struct.anon.1 = type { i64, i64, i64, i64, i64, i64, i64, i64, i64, i64, i64, i64, i64, i64, i64, i64, i64, i64, i64, i64, i64, i64, i64, i64, i64, i64, i64, i64, i64, i64, i64, i64, i64, i64, i64, i64, i64, i64, i64, i64, i64, i64, i64, i64, i64, i64, i64, i64, i64, i64, i64, i64, i64 }
%struct.SDL_Point = type { i32, i32 }
%struct.anon.2 = type { ptr, i32, i32, i32, i16, i32, i32 }
%struct.SDL_Window = type { i32, ptr, ptr, i32, i32, i32, i32, i32, i32, i32, i32, float, float, i32, i32, i64, i64, float, i8, i8, i32, i32, %struct.SDL_Rect, %struct.SDL_Rect, %struct.SDL_Rect, i8, i8, i8, %struct.SDL_DisplayMode, %struct.SDL_DisplayMode, %struct.SDL_HDROutputProperties, float, ptr, i8, i8, i8, i8, i8, i8, i8, i8, i8, i32, i32, i32, i32, %struct.SDL_Rect, i32, i8, %struct.SDL_Rect, i32, %struct.SDL_Rect, ptr, ptr, i32, float, i32, i32, ptr, ptr, ptr, ptr, ptr, ptr, ptr, ptr, ptr }
%struct.SDL_DisplayMode = type { i32, i32, i32, i32, float, float, i32, i32, ptr }
%struct.SDL_HDROutputProperties = type { float, float }
%struct.XSizeHints = type { i64, i32, i32, i32, i32, i32, i32, i32, i32, i32, i32, %struct.anon.5, %struct.anon.5, i32, i32, i32 }
%struct.anon.5 = type { i32, i32 }
%struct.SDL_WindowData = type { ptr, i64, ptr, i64, i8, %struct.XShmSegmentInfo, ptr, ptr, ptr, i8, i32, i32, i32, i32, i8, i8, i8, i64, i32, i64, i8, %struct.SDL_Point, %struct.XConfigureEvent, %struct.XConfigureEvent, ptr, i64, i64, i64, i8, i64, ptr, i8, [4 x i64], %struct.SDL_Rect, i64, %struct._XSyncValue, i8, %struct.SDL_Rect, %struct.SDL_DisplayMode, i32, i32, i8, i8, i8, i8, i8, i8, i8, i8, i32, %struct.XPoint, ptr, ptr, i32, i32, i8 }
%struct.XShmSegmentInfo = type { i64, i32, ptr, i32 }
%struct.XConfigureEvent = type { i32, i64, i32, ptr, i64, i64, i32, i32, i32, i32, i32, i64, i32 }
%struct._XSyncValue = type { i32, i32 }
%struct.XPoint = type { i16, i16 }

@X11_XFree = external global ptr, align 8
@X11_XAllocSizeHints = external global ptr, align 8
@X11_XMoveWindow = external global ptr, align 8
@X11_XGetWMNormalHints = external global ptr, align 8
@X11_XSetWMNormalHints = external global ptr, align 8
@X11_XResizeWindow = external global ptr, align 8
@X11_XRaiseWindow = external global ptr, align 8

; Function Attrs: nounwind uwtable
define internal void @X11_FlushPendingEvents(ptr noundef %0, ptr noundef %1) #0 {
  %3 = alloca ptr, align 8
  %4 = alloca ptr, align 8
  %5 = alloca i8, align 1
  %6 = alloca i8, align 1
  store ptr %0, ptr %3, align 8
  store ptr %1, ptr %4, align 8
  call void @llvm.lifetime.start.p0(i64 1, ptr %5) #7
  %7 = load ptr, ptr %4, align 8
  %8 = getelementptr inbounds nuw %struct.SDL_Window, ptr %7, i32 0, i32 36
  %9 = load i8, ptr %8, align 1, !range !5, !noundef !6
  %10 = trunc i8 %9 to i1
  %11 = zext i1 %10 to i8
  store i8 %11, ptr %5, align 1
  call void @llvm.lifetime.start.p0(i64 1, ptr %6) #7
  %12 = load ptr, ptr %4, align 8
  %13 = getelementptr inbounds nuw %struct.SDL_Window, ptr %12, i32 0, i32 37
  %14 = load i8, ptr %13, align 4, !range !5, !noundef !6
  %15 = trunc i8 %14 to i1
  %16 = zext i1 %15 to i8
  store i8 %16, ptr %6, align 1
  %17 = load ptr, ptr %3, align 8
  %18 = load ptr, ptr %4, align 8
  %19 = call zeroext i1 @X11_SyncWindow(ptr noundef %17, ptr noundef %18)
  %20 = load i8, ptr %5, align 1, !range !5, !noundef !6
  %21 = trunc i8 %20 to i1
  %22 = load ptr, ptr %4, align 8
  %23 = getelementptr inbounds nuw %struct.SDL_Window, ptr %22, i32 0, i32 36
  %24 = zext i1 %21 to i8
  store i8 %24, ptr %23, align 1
  %25 = load i8, ptr %6, align 1, !range !5, !noundef !6
  %26 = trunc i8 %25 to i1
  %27 = load ptr, ptr %4, align 8
  %28 = getelementptr inbounds nuw %struct.SDL_Window, ptr %27, i32 0, i32 37
  %29 = zext i1 %26 to i8
  store i8 %29, ptr %28, align 4
  call void @llvm.lifetime.end.p0(i64 1, ptr %6) #7
  call void @llvm.lifetime.end.p0(i64 1, ptr %5) #7
  ret void
}

; Function Attrs: nounwind uwtable
define hidden void @X11_SetWindowSize(ptr noundef %0, ptr noundef %1) #0 {
  %3 = alloca ptr, align 8
  %4 = alloca ptr, align 8
  %5 = alloca ptr, align 8
  %6 = alloca ptr, align 8
  %7 = alloca i32, align 4
  %8 = alloca ptr, align 8
  %9 = alloca i64, align 8
  %10 = alloca i32, align 4
  %11 = alloca i32, align 4
  %12 = alloca i32, align 4
  %13 = alloca i32, align 4
  store ptr %0, ptr %3, align 8
  store ptr %1, ptr %4, align 8
  call void @llvm.lifetime.start.p0(i64 8, ptr %5) #7
  %14 = load ptr, ptr %4, align 8
  %15 = getelementptr inbounds nuw %struct.SDL_Window, ptr %14, i32 0, i32 59
  %16 = load ptr, ptr %15, align 8
  store ptr %16, ptr %5, align 8
  call void @llvm.lifetime.start.p0(i64 8, ptr %6) #7
  %17 = load ptr, ptr %5, align 8
  %18 = getelementptr inbounds nuw %struct.SDL_WindowData, ptr %17, i32 0, i32 24
  %19 = load ptr, ptr %18, align 8
  %20 = getelementptr inbounds nuw %struct.SDL_VideoData, ptr %19, i32 0, i32 0
  %21 = load ptr, ptr %20, align 8
  store ptr %21, ptr %6, align 8
  %22 = load ptr, ptr %5, align 8
  %23 = getelementptr inbounds nuw %struct.SDL_WindowData, ptr %22, i32 0, i32 39
  %24 = load i32, ptr %23, align 8
  %25 = and i32 %24, 12
  %26 = icmp ne i32 %25, 0
  br i1 %26, label %27, label %30

27:                                               ; preds = %2
  %28 = load ptr, ptr %3, align 8
  %29 = load ptr, ptr %4, align 8
  call void @X11_FlushPendingEvents(ptr noundef %28, ptr noundef %29)
  br label %30

30:                                               ; preds = %27, %2
  %31 = load ptr, ptr %4, align 8
  %32 = getelementptr inbounds nuw %struct.SDL_Window, ptr %31, i32 0, i32 15
  %33 = load i64, ptr %32, align 8
  %34 = and i64 %33, 129
  %35 = icmp ne i64 %34, 0
  br i1 %35, label %36, label %49

36:                                               ; preds = %30
  %37 = load ptr, ptr %5, align 8
  %38 = getelementptr inbounds nuw %struct.SDL_WindowData, ptr %37, i32 0, i32 39
  %39 = load i32, ptr %38, align 8
  %40 = and i32 %39, 1
  %41 = icmp ne i32 %40, 0
  br i1 %41, label %42, label %45

42:                                               ; preds = %36
  %43 = load ptr, ptr %5, align 8
  %44 = getelementptr inbounds nuw %struct.SDL_WindowData, ptr %43, i32 0, i32 41
  store i8 1, ptr %44, align 8
  br label %48

45:                                               ; preds = %36
  %46 = load ptr, ptr %4, align 8
  %47 = getelementptr inbounds nuw %struct.SDL_Window, ptr %46, i32 0, i32 37
  store i8 0, ptr %47, align 4
  br label %48

48:                                               ; preds = %45, %42
  store i32 1, ptr %7, align 4
  br label %231

49:                                               ; preds = %30
  %50 = load ptr, ptr %4, align 8
  %51 = getelementptr inbounds nuw %struct.SDL_Window, ptr %50, i32 0, i32 15
  %52 = load i64, ptr %51, align 8
  %53 = and i64 %52, 32
  %54 = icmp ne i64 %53, 0
  br i1 %54, label %180, label %55

55:                                               ; preds = %49
  %56 = load ptr, ptr %4, align 8
  %57 = getelementptr inbounds nuw %struct.SDL_Window, ptr %56, i32 0, i32 15
  %58 = load i64, ptr %57, align 8
  %59 = and i64 %58, 1
  %60 = icmp ne i64 %59, 0
  br i1 %60, label %179, label %61

61:                                               ; preds = %55
  call void @llvm.lifetime.start.p0(i64 8, ptr %8) #7
  %62 = load ptr, ptr @X11_XAllocSizeHints, align 8
  %63 = call ptr %62()
  store ptr %63, ptr %8, align 8
  call void @llvm.lifetime.start.p0(i64 8, ptr %9) #7
  call void @llvm.lifetime.start.p0(i64 4, ptr %10) #7
  call void @llvm.lifetime.start.p0(i64 4, ptr %11) #7
  %64 = load ptr, ptr @X11_XGetWMNormalHints, align 8
  %65 = load ptr, ptr %6, align 8
  %66 = load ptr, ptr %5, align 8
  %67 = getelementptr inbounds nuw %struct.SDL_WindowData, ptr %66, i32 0, i32 1
  %68 = load i64, ptr %67, align 8
  %69 = load ptr, ptr %8, align 8
  %70 = call i32 %64(ptr noundef %65, i64 noundef %68, ptr noundef %69, ptr noundef %9)
  %71 = load ptr, ptr %4, align 8
  %72 = getelementptr inbounds nuw %struct.SDL_Window, ptr %71, i32 0, i32 24
  %73 = getelementptr inbounds nuw %struct.SDL_Rect, ptr %72, i32 0, i32 2
  %74 = load i32, ptr %73, align 8
  %75 = load ptr, ptr %8, align 8
  %76 = getelementptr inbounds nuw %struct.XSizeHints, ptr %75, i32 0, i32 7
  store i32 %74, ptr %76, align 8
  %77 = load ptr, ptr %8, align 8
  %78 = getelementptr inbounds nuw %struct.XSizeHints, ptr %77, i32 0, i32 5
  store i32 %74, ptr %78, align 8
  %79 = load ptr, ptr %5, align 8
  %80 = getelementptr inbounds nuw %struct.SDL_WindowData, ptr %79, i32 0, i32 37
  %81 = getelementptr inbounds nuw %struct.SDL_Rect, ptr %80, i32 0, i32 2
  store i32 %74, ptr %81, align 4
  %82 = load ptr, ptr %4, align 8
  %83 = getelementptr inbounds nuw %struct.SDL_Window, ptr %82, i32 0, i32 24
  %84 = getelementptr inbounds nuw %struct.SDL_Rect, ptr %83, i32 0, i32 3
  %85 = load i32, ptr %84, align 4
  %86 = load ptr, ptr %8, align 8
  %87 = getelementptr inbounds nuw %struct.XSizeHints, ptr %86, i32 0, i32 8
  store i32 %85, ptr %87, align 4
  %88 = load ptr, ptr %8, align 8
  %89 = getelementptr inbounds nuw %struct.XSizeHints, ptr %88, i32 0, i32 6
  store i32 %85, ptr %89, align 4
  %90 = load ptr, ptr %5, align 8
  %91 = getelementptr inbounds nuw %struct.SDL_WindowData, ptr %90, i32 0, i32 37
  %92 = getelementptr inbounds nuw %struct.SDL_Rect, ptr %91, i32 0, i32 3
  store i32 %85, ptr %92, align 4
  %93 = load ptr, ptr %8, align 8
  %94 = getelementptr inbounds nuw %struct.XSizeHints, ptr %93, i32 0, i32 0
  %95 = load i64, ptr %94, align 8
  %96 = or i64 %95, 48
  store i64 %96, ptr %94, align 8
  %97 = load ptr, ptr %5, align 8
  %98 = getelementptr inbounds nuw %struct.SDL_WindowData, ptr %97, i32 0, i32 39
  %99 = load i32, ptr %98, align 8
  %100 = or i32 %99, 32
  store i32 %100, ptr %98, align 8
  %101 = load ptr, ptr @X11_XSetWMNormalHints, align 8
  %102 = load ptr, ptr %6, align 8
  %103 = load ptr, ptr %5, align 8
  %104 = getelementptr inbounds nuw %struct.SDL_WindowData, ptr %103, i32 0, i32 1
  %105 = load i64, ptr %104, align 8
  %106 = load ptr, ptr %8, align 8
  call void %101(ptr noundef %102, i64 noundef %105, ptr noundef %106)
  %107 = load ptr, ptr @X11_XResizeWindow, align 8
  %108 = load ptr, ptr %6, align 8
  %109 = load ptr, ptr %5, align 8
  %110 = getelementptr inbounds nuw %struct.SDL_WindowData, ptr %109, i32 0, i32 1
  %111 = load i64, ptr %110, align 8
  %112 = load ptr, ptr %4, align 8
  %113 = getelementptr inbounds nuw %struct.SDL_Window, ptr %112, i32 0, i32 24
  %114 = getelementptr inbounds nuw %struct.SDL_Rect, ptr %113, i32 0, i32 2
  %115 = load i32, ptr %114, align 8
  %116 = load ptr, ptr %4, align 8
  %117 = getelementptr inbounds nuw %struct.SDL_Window, ptr %116, i32 0, i32 24
  %118 = getelementptr inbounds nuw %struct.SDL_Rect, ptr %117, i32 0, i32 3
  %119 = load i32, ptr %118, align 4
  %120 = call i32 %107(ptr noundef %108, i64 noundef %111, i32 noundef %115, i32 noundef %119)
  call void @llvm.lifetime.start.p0(i64 4, ptr %12) #7
  %121 = load ptr, ptr %4, align 8
  %122 = getelementptr inbounds nuw %struct.SDL_Window, ptr %121, i32 0, i32 36
  %123 = load i8, ptr %122, align 1, !range !5, !noundef !6
  %124 = trunc i8 %123 to i1
  br i1 %124, label %125, label %130

125:                                              ; preds = %61
  %126 = load ptr, ptr %4, align 8
  %127 = getelementptr inbounds nuw %struct.SDL_Window, ptr %126, i32 0, i32 24
  %128 = getelementptr inbounds nuw %struct.SDL_Rect, ptr %127, i32 0, i32 0
  %129 = load i32, ptr %128, align 8
  br label %134

130:                                              ; preds = %61
  %131 = load ptr, ptr %4, align 8
  %132 = getelementptr inbounds nuw %struct.SDL_Window, ptr %131, i32 0, i32 3
  %133 = load i32, ptr %132, align 8
  br label %134

134:                                              ; preds = %130, %125
  %135 = phi i32 [ %129, %125 ], [ %133, %130 ]
  store i32 %135, ptr %12, align 4
  call void @llvm.lifetime.start.p0(i64 4, ptr %13) #7
  %136 = load ptr, ptr %4, align 8
  %137 = getelementptr inbounds nuw %struct.SDL_Window, ptr %136, i32 0, i32 36
  %138 = load i8, ptr %137, align 1, !range !5, !noundef !6
  %139 = trunc i8 %138 to i1
  br i1 %139, label %140, label %145

140:                                              ; preds = %134
  %141 = load ptr, ptr %4, align 8
  %142 = getelementptr inbounds nuw %struct.SDL_Window, ptr %141, i32 0, i32 24
  %143 = getelementptr inbounds nuw %struct.SDL_Rect, ptr %142, i32 0, i32 1
  %144 = load i32, ptr %143, align 4
  br label %149

145:                                              ; preds = %134
  %146 = load ptr, ptr %4, align 8
  %147 = getelementptr inbounds nuw %struct.SDL_Window, ptr %146, i32 0, i32 4
  %148 = load i32, ptr %147, align 4
  br label %149

149:                                              ; preds = %145, %140
  %150 = phi i32 [ %144, %140 ], [ %148, %145 ]
  store i32 %150, ptr %13, align 4
  %151 = load ptr, ptr %4, align 8
  %152 = load i32, ptr %12, align 4
  %153 = load ptr, ptr %5, align 8
  %154 = getelementptr inbounds nuw %struct.SDL_WindowData, ptr %153, i32 0, i32 10
  %155 = load i32, ptr %154, align 4
  %156 = sub nsw i32 %152, %155
  %157 = load i32, ptr %13, align 4
  %158 = load ptr, ptr %5, align 8
  %159 = getelementptr inbounds nuw %struct.SDL_WindowData, ptr %158, i32 0, i32 12
  %160 = load i32, ptr %159, align 4
  %161 = sub nsw i32 %157, %160
  call void @SDL_RelativeToGlobalForWindow(ptr noundef %151, i32 noundef %156, i32 noundef %161, ptr noundef %10, ptr noundef %11)
  %162 = load ptr, ptr @X11_XMoveWindow, align 8
  %163 = load ptr, ptr %6, align 8
  %164 = load ptr, ptr %5, align 8
  %165 = getelementptr inbounds nuw %struct.SDL_WindowData, ptr %164, i32 0, i32 1
  %166 = load i64, ptr %165, align 8
  %167 = load i32, ptr %10, align 4
  %168 = load i32, ptr %11, align 4
  %169 = call i32 %162(ptr noundef %163, i64 noundef %166, i32 noundef %167, i32 noundef %168)
  %170 = load ptr, ptr @X11_XRaiseWindow, align 8
  %171 = load ptr, ptr %6, align 8
  %172 = load ptr, ptr %5, align 8
  %173 = getelementptr inbounds nuw %struct.SDL_WindowData, ptr %172, i32 0, i32 1
  %174 = load i64, ptr %173, align 8
  %175 = call i32 %170(ptr noundef %171, i64 noundef %174)
  %176 = load ptr, ptr @X11_XFree, align 8
  %177 = load ptr, ptr %8, align 8
  %178 = call i32 %176(ptr noundef %177)
  call void @llvm.lifetime.end.p0(i64 4, ptr %13) #7
  call void @llvm.lifetime.end.p0(i64 4, ptr %12) #7
  call void @llvm.lifetime.end.p0(i64 4, ptr %11) #7
  call void @llvm.lifetime.end.p0(i64 4, ptr %10) #7
  call void @llvm.lifetime.end.p0(i64 8, ptr %9) #7
  call void @llvm.lifetime.end.p0(i64 8, ptr %8) #7
  br label %179

179:                                              ; preds = %149, %55
  br label %213

180:                                              ; preds = %49
  %181 = load ptr, ptr %4, align 8
  %182 = getelementptr inbounds nuw %struct.SDL_Window, ptr %181, i32 0, i32 24
  %183 = getelementptr inbounds nuw %struct.SDL_Rect, ptr %182, i32 0, i32 2
  %184 = load i32, ptr %183, align 8
  %185 = load ptr, ptr %5, align 8
  %186 = getelementptr inbounds nuw %struct.SDL_WindowData, ptr %185, i32 0, i32 37
  %187 = getelementptr inbounds nuw %struct.SDL_Rect, ptr %186, i32 0, i32 2
  store i32 %184, ptr %187, align 4
  %188 = load ptr, ptr %4, align 8
  %189 = getelementptr inbounds nuw %struct.SDL_Window, ptr %188, i32 0, i32 24
  %190 = getelementptr inbounds nuw %struct.SDL_Rect, ptr %189, i32 0, i32 3
  %191 = load i32, ptr %190, align 4
  %192 = load ptr, ptr %5, align 8
  %193 = getelementptr inbounds nuw %struct.SDL_WindowData, ptr %192, i32 0, i32 37
  %194 = getelementptr inbounds nuw %struct.SDL_Rect, ptr %193, i32 0, i32 3
  store i32 %191, ptr %194, align 4
  %195 = load ptr, ptr %5, align 8
  %196 = getelementptr inbounds nuw %struct.SDL_WindowData, ptr %195, i32 0, i32 39
  %197 = load i32, ptr %196, align 8
  %198 = or i32 %197, 32
  store i32 %198, ptr %196, align 8
  %199 = load ptr, ptr @X11_XResizeWindow, align 8
  %200 = load ptr, ptr %6, align 8
  %201 = load ptr, ptr %5, align 8
  %202 = getelementptr inbounds nuw %struct.SDL_WindowData, ptr %201, i32 0, i32 1
  %203 = load i64, ptr %202, align 8
  %204 = load ptr, ptr %5, align 8
  %205 = getelementptr inbounds nuw %struct.SDL_WindowData, ptr %204, i32 0, i32 37
  %206 = getelementptr inbounds nuw %struct.SDL_Rect, ptr %205, i32 0, i32 2
  %207 = load i32, ptr %206, align 4
  %208 = load ptr, ptr %5, align 8
  %209 = getelementptr inbounds nuw %struct.SDL_WindowData, ptr %208, i32 0, i32 37
  %210 = getelementptr inbounds nuw %struct.SDL_Rect, ptr %209, i32 0, i32 3
  %211 = load i32, ptr %210, align 4
  %212 = call i32 %199(ptr noundef %200, i64 noundef %203, i32 noundef %207, i32 noundef %211)
  br label %213

213:                                              ; preds = %180, %179
  %214 = load ptr, ptr %4, align 8
  %215 = getelementptr inbounds nuw %struct.SDL_Window, ptr %214, i32 0, i32 15
  %216 = load i64, ptr %215, align 8
  %217 = and i64 %216, 2048
  %218 = icmp ne i64 %217, 0
  br i1 %218, label %219, label %230

219:                                              ; preds = %213
  %220 = load ptr, ptr %4, align 8
  %221 = load ptr, ptr %4, align 8
  %222 = getelementptr inbounds nuw %struct.SDL_Window, ptr %221, i32 0, i32 24
  %223 = getelementptr inbounds nuw %struct.SDL_Rect, ptr %222, i32 0, i32 2
  %224 = load i32, ptr %223, align 8
  %225 = load ptr, ptr %4, align 8
  %226 = getelementptr inbounds nuw %struct.SDL_Window, ptr %225, i32 0, i32 24
  %227 = getelementptr inbounds nuw %struct.SDL_Rect, ptr %226, i32 0, i32 3
  %228 = load i32, ptr %227, align 4
  %229 = call zeroext i1 @SDL_SendWindowEvent(ptr noundef %220, i32 noundef 518, i32 noundef %224, i32 noundef %228)
  br label %230

230:                                              ; preds = %219, %213
  store i32 0, ptr %7, align 4
  br label %231

231:                                              ; preds = %230, %48
  call void @llvm.lifetime.end.p0(i64 8, ptr %6) #7
  call void @llvm.lifetime.end.p0(i64 8, ptr %5) #7
  %232 = load i32, ptr %7, align 4
  switch i32 %232, label %234 [
    i32 0, label %233
    i32 1, label %233
  ]

233:                                              ; preds = %231, %231
  ret void

234:                                              ; preds = %231
  unreachable
}