; Function Attrs: nounwind uwtable
define hidden void @X11_SetWindowSize(ptr noundef %0, ptr noundef %1) local_unnamed_addr #0 {
  %3 = alloca i64, align 8
  %4 = alloca i32, align 4
  %5 = alloca i32, align 4
  %6 = getelementptr inbounds nuw i8, ptr %1, i64 392
  %7 = load ptr, ptr %6, align 8
  %8 = getelementptr inbounds nuw i8, ptr %7, i64 336
  %9 = load ptr, ptr %8, align 8
  %10 = load ptr, ptr %9, align 8
  %11 = getelementptr inbounds nuw i8, ptr %7, i64 528
  %12 = load i32, ptr %11, align 8
  %13 = and i32 %12, 12
  %.not = icmp eq i32 %13, 0
  br i1 %.not, label %20, label %14

14:                                               ; preds = %2
  %15 = getelementptr inbounds nuw i8, ptr %1, i64 267
  %16 = load i8, ptr %15, align 1, !range !5, !noundef !6
  %17 = getelementptr inbounds nuw i8, ptr %1, i64 268
  %18 = load i8, ptr %17, align 4, !range !5, !noundef !6
  %19 = tail call zeroext i1 @X11_SyncWindow(ptr noundef %0, ptr noundef nonnull %1)
  store i8 %16, ptr %15, align 1
  store i8 %18, ptr %17, align 4
  br label %20

20:                                               ; preds = %14, %2
  %21 = getelementptr inbounds nuw i8, ptr %1, i64 72
  %22 = load i64, ptr %21, align 8
  %23 = and i64 %22, 129
  %.not59 = icmp eq i64 %23, 0
  br i1 %.not59, label %31, label %24

24:                                               ; preds = %20
  %25 = load i32, ptr %11, align 8
  %26 = and i32 %25, 1
  %.not63 = icmp eq i32 %26, 0
  br i1 %.not63, label %29, label %27

27:                                               ; preds = %24
  %28 = getelementptr inbounds nuw i8, ptr %7, i64 536
  store i8 1, ptr %28, align 8
  br label %104

29:                                               ; preds = %24
  %30 = getelementptr inbounds nuw i8, ptr %1, i64 268
  store i8 0, ptr %30, align 4
  br label %104

31:                                               ; preds = %20
  %32 = and i64 %22, 32
  %.not60 = icmp eq i64 %32, 0
  br i1 %.not60, label %33, label %82

33:                                               ; preds = %31
  %34 = load ptr, ptr @X11_XAllocSizeHints, align 8
  %35 = tail call ptr %34() #12
  call void @llvm.lifetime.start.p0(i64 8, ptr nonnull %3) #12
  call void @llvm.lifetime.start.p0(i64 4, ptr nonnull %4) #12
  call void @llvm.lifetime.start.p0(i64 4, ptr nonnull %5) #12
  %36 = load ptr, ptr @X11_XGetWMNormalHints, align 8
  %37 = getelementptr inbounds nuw i8, ptr %7, i64 8
  %38 = load i64, ptr %37, align 8
  %39 = call i32 %36(ptr noundef %10, i64 noundef %38, ptr noundef %35, ptr noundef nonnull %3) #12
  %40 = getelementptr inbounds nuw i8, ptr %1, i64 144
  %41 = load i32, ptr %40, align 8
  %42 = getelementptr inbounds nuw i8, ptr %35, i64 32
  store i32 %41, ptr %42, align 8
  %43 = getelementptr inbounds nuw i8, ptr %35, i64 24
  store i32 %41, ptr %43, align 8
  %44 = getelementptr inbounds nuw i8, ptr %7, i64 476
  store i32 %41, ptr %44, align 4
  %45 = getelementptr inbounds nuw i8, ptr %1, i64 148
  %46 = load i32, ptr %45, align 4
  %47 = getelementptr inbounds nuw i8, ptr %35, i64 36
  store i32 %46, ptr %47, align 4
  %48 = getelementptr inbounds nuw i8, ptr %35, i64 28
  store i32 %46, ptr %48, align 4
  %49 = getelementptr inbounds nuw i8, ptr %7, i64 480
  store i32 %46, ptr %49, align 4
  %50 = load i64, ptr %35, align 8
  %51 = or i64 %50, 48
  store i64 %51, ptr %35, align 8
  %52 = load i32, ptr %11, align 8
  %53 = or i32 %52, 32
  store i32 %53, ptr %11, align 8
  %54 = load ptr, ptr @X11_XSetWMNormalHints, align 8
  %55 = load i64, ptr %37, align 8
  call void %54(ptr noundef %10, i64 noundef %55, ptr noundef nonnull %35) #12
  %56 = load ptr, ptr @X11_XResizeWindow, align 8
  %57 = load i64, ptr %37, align 8
  %58 = load i32, ptr %40, align 8
  %59 = load i32, ptr %45, align 4
  %60 = call i32 %56(ptr noundef %10, i64 noundef %57, i32 noundef %58, i32 noundef %59) #12
  %61 = getelementptr inbounds nuw i8, ptr %1, i64 267
  %62 = load i8, ptr %61, align 1, !range !5, !noundef !6
  %63 = trunc nuw i8 %62 to i1
  %.in.v = select i1 %63, i64 136, i64 24
  %.in = getelementptr inbounds nuw i8, ptr %1, i64 %.in.v
  %64 = load i32, ptr %.in, align 8
  %.in61.v = select i1 %63, i64 140, i64 28
  %.in61 = getelementptr inbounds nuw i8, ptr %1, i64 %.in61.v
  %65 = load i32, ptr %.in61, align 4
  %66 = getelementptr inbounds nuw i8, ptr %7, i64 100
  %67 = load i32, ptr %66, align 4
  %68 = sub nsw i32 %64, %67
  %69 = getelementptr inbounds nuw i8, ptr %7, i64 108
  %70 = load i32, ptr %69, align 4
  %71 = sub nsw i32 %65, %70
  call void @SDL_RelativeToGlobalForWindow(ptr noundef nonnull %1, i32 noundef %68, i32 noundef %71, ptr noundef nonnull %4, ptr noundef nonnull %5) #12
  %72 = load ptr, ptr @X11_XMoveWindow, align 8
  %73 = load i64, ptr %37, align 8
  %74 = load i32, ptr %4, align 4
  %75 = load i32, ptr %5, align 4
  %76 = call i32 %72(ptr noundef %10, i64 noundef %73, i32 noundef %74, i32 noundef %75) #12
  %77 = load ptr, ptr @X11_XRaiseWindow, align 8
  %78 = load i64, ptr %37, align 8
  %79 = call i32 %77(ptr noundef %10, i64 noundef %78) #12
  %80 = load ptr, ptr @X11_XFree, align 8
  %81 = call i32 %80(ptr noundef nonnull %35) #12
  call void @llvm.lifetime.end.p0(i64 4, ptr nonnull %5) #12
  call void @llvm.lifetime.end.p0(i64 4, ptr nonnull %4) #12
  call void @llvm.lifetime.end.p0(i64 8, ptr nonnull %3) #12
  br label %95

82:                                               ; preds = %31
  %83 = getelementptr inbounds nuw i8, ptr %1, i64 144
  %84 = load i32, ptr %83, align 8
  %85 = getelementptr inbounds nuw i8, ptr %7, i64 476
  store i32 %84, ptr %85, align 4
  %86 = getelementptr inbounds nuw i8, ptr %1, i64 148
  %87 = load i32, ptr %86, align 4
  %88 = getelementptr inbounds nuw i8, ptr %7, i64 480
  store i32 %87, ptr %88, align 4
  %89 = load i32, ptr %11, align 8
  %90 = or i32 %89, 32
  store i32 %90, ptr %11, align 8
  %91 = load ptr, ptr @X11_XResizeWindow, align 8
  %92 = getelementptr inbounds nuw i8, ptr %7, i64 8
  %93 = load i64, ptr %92, align 8
  %94 = tail call i32 %91(ptr noundef %10, i64 noundef %93, i32 noundef %84, i32 noundef %87) #12
  br label %95

95:                                               ; preds = %33, %82
  %96 = load i64, ptr %21, align 8
  %97 = and i64 %96, 2048
  %.not62 = icmp eq i64 %97, 0
  br i1 %.not62, label %104, label %98

98:                                               ; preds = %95
  %99 = getelementptr inbounds nuw i8, ptr %1, i64 144
  %100 = load i32, ptr %99, align 8
  %101 = getelementptr inbounds nuw i8, ptr %1, i64 148
  %102 = load i32, ptr %101, align 4
  %103 = call zeroext i1 @SDL_SendWindowEvent(ptr noundef nonnull %1, i32 noundef 518, i32 noundef %100, i32 noundef %102) #12
  br label %104

104:                                              ; preds = %95, %98, %27, %29
  ret void
}